target datalayout = "e-m:e-p270:32:32-p271:32:32-p272:64:64-i64:64-i128:128-f80:128-n8:16:32:64-S128"
target triple = "x86_64-pc-linux-gnu"

%"class.lean::constant_info" = type { %"class.lean::object_ref" }
%"class.lean::object_ref" = type { ptr }
%"class.lean::environment" = type { %"class.lean::object_ref" }
%"class.lean::name" = type { %"class.lean::object_ref" }
%"class.lean::optional.78" = type { i8, %union.anon.79 }
%union.anon.79 = type { %"class.lean::constant_info" }

@.str.13 = private unnamed_addr constant [9 x i8] c"_cstage2\00", align 1

; Function Attrs: mustprogress nounwind uwtable
define linkonce_odr hidden void @_ZN4lean8optionalINS_13constant_infoEED2Ev(ptr noundef nonnull align 8 dereferenceable(16) %0) unnamed_addr #3 comdat align 2 {
  %2 = alloca ptr, align 8
  store ptr %0, ptr %2, align 8, !tbaa !128
  %3 = load ptr, ptr %2, align 8
  %4 = getelementptr inbounds nuw %"class.lean::optional.78", ptr %3, i32 0, i32 0
  %5 = load i8, ptr %4, align 8, !tbaa !130, !range !56, !noundef !57
  %6 = trunc i8 %5 to i1
  br i1 %6, label %7, label %9

7:                                                ; preds = %1
  %8 = getelementptr inbounds nuw %"class.lean::optional.78", ptr %3, i32 0, i32 1
  call void @_ZN4lean10object_refD2Ev(ptr noundef nonnull align 8 dereferenceable(8) %8) #19
  br label %9

9:                                                ; preds = %7, %1
  ret void
}

; Function Attrs: mustprogress nounwind uwtable
define linkonce_odr hidden noundef zeroext i1 @_ZNK4lean8optionalINS_13constant_infoEEcvbEv(ptr noundef nonnull align 8 dereferenceable(16) %0) #3 comdat align 2 {
  %2 = alloca ptr, align 8
  store ptr %0, ptr %2, align 8, !tbaa !128
  %3 = load ptr, ptr %2, align 8
  %4 = getelementptr inbounds nuw %"class.lean::optional.78", ptr %3, i32 0, i32 0
  %5 = load i8, ptr %4, align 8, !tbaa !130, !range !56, !noundef !57
  %6 = trunc i8 %5 to i1
  ret i1 %6
}

; Function Attrs: mustprogress uwtable
define linkonce_odr hidden void @_ZNK4lean16elab_environment4findERKNS_4nameE(ptr dead_on_unwind noalias writable sret(%"class.lean::optional.78") align 8 %0, ptr noundef nonnull align 8 dereferenceable(8) %1, ptr noundef nonnull align 8 dereferenceable(8) %2) #0 comdat align 2 personality ptr @__gxx_personality_v0 {
  %4 = alloca ptr, align 8
  %5 = alloca ptr, align 8
  %6 = alloca ptr, align 8
  %7 = alloca %"class.lean::environment", align 8
  %8 = alloca ptr, align 8
  %9 = alloca i32, align 4
  store ptr %0, ptr %4, align 8
  store ptr %1, ptr %5, align 8, !tbaa !37
  store ptr %2, ptr %6, align 8, !tbaa !8
  %10 = load ptr, ptr %5, align 8
  call void @llvm.lifetime.start.p0(i64 8, ptr %7) #19
  call void @_ZNK4lean16elab_environment13to_kernel_envEv(ptr dead_on_unwind writable sret(%"class.lean::environment") align 8 %7, ptr noundef nonnull align 8 dereferenceable(8) %10)
  %11 = load ptr, ptr %6, align 8, !tbaa !8
  invoke void @_ZNK4lean11environment4findERKNS_4nameE(ptr dead_on_unwind writable sret(%"class.lean::optional.78") align 8 %0, ptr noundef nonnull align 8 dereferenceable(8) %7, ptr noundef nonnull align 8 dereferenceable(8) %11)
          to label %12 unwind label %13

12:                                               ; preds = %3
  call void @_ZN4lean10object_refD2Ev(ptr noundef nonnull align 8 dereferenceable(8) %7) #19
  call void @llvm.lifetime.end.p0(i64 8, ptr %7) #19
  ret void

13:                                               ; preds = %3
  %14 = landingpad { ptr, i32 }
          cleanup
  %15 = extractvalue { ptr, i32 } %14, 0
  store ptr %15, ptr %8, align 8
  %16 = extractvalue { ptr, i32 } %14, 1
  store i32 %16, ptr %9, align 4
  call void @_ZN4lean10object_refD2Ev(ptr noundef nonnull align 8 dereferenceable(8) %7) #19
  call void @llvm.lifetime.end.p0(i64 8, ptr %7) #19
  br label %17

17:                                               ; preds = %13
  %18 = load ptr, ptr %8, align 8
  %19 = load i32, ptr %9, align 4
  %20 = insertvalue { ptr, i32 } poison, ptr %18, 0
  %21 = insertvalue { ptr, i32 } %20, i32 %19, 1
  resume { ptr, i32 } %21
}

; Function Attrs: inlinehint mustprogress uwtable
define linkonce_odr hidden void @_ZN4lean15mk_cstage2_nameERKNS_4nameE(ptr dead_on_unwind noalias writable sret(%"class.lean::name") align 8 %0, ptr noundef nonnull align 8 dereferenceable(8) %1) #4 comdat {
  %3 = alloca ptr, align 8
  %4 = alloca ptr, align 8
  store ptr %0, ptr %3, align 8
  store ptr %1, ptr %4, align 8, !tbaa !8
  %5 = load ptr, ptr %4, align 8, !tbaa !8
  call void @_ZN4lean4nameC1ERKS0_PKc(ptr noundef nonnull align 8 dereferenceable(8) %0, ptr noundef nonnull align 8 dereferenceable(8) %5, ptr noundef @.str.13)
  ret void
}

; Function Attrs: mustprogress uwtable
define hidden noundef zeroext i1 @_ZN4lean14is_stage2_declERKNS_16elab_environmentERKNS_4nameE(ptr noundef nonnull align 8 dereferenceable(8) %0, ptr noundef nonnull align 8 dereferenceable(8) %1) #0 personality ptr @__gxx_personality_v0 {
  %3 = alloca ptr, align 8
  %4 = alloca ptr, align 8
  %5 = alloca %"class.lean::optional.78", align 8
  %6 = alloca %"class.lean::name", align 8
  %7 = alloca ptr, align 8
  %8 = alloca i32, align 4
  store ptr %0, ptr %3, align 8, !tbaa !37
  store ptr %1, ptr %4, align 8, !tbaa !8
  call void @llvm.lifetime.start.p0(i64 16, ptr %5) #19
  %9 = load ptr, ptr %3, align 8, !tbaa !37
  call void @llvm.lifetime.start.p0(i64 8, ptr %6) #19
  %10 = load ptr, ptr %4, align 8, !tbaa !8
  call void @_ZN4lean15mk_cstage2_nameERKNS_4nameE(ptr dead_on_unwind writable sret(%"class.lean::name") align 8 %6, ptr noundef nonnull align 8 dereferenceable(8) %10)
  invoke void @_ZNK4lean16elab_environment4findERKNS_4nameE(ptr dead_on_unwind writable sret(%"class.lean::optional.78") align 8 %5, ptr noundef nonnull align 8 dereferenceable(8) %9, ptr noundef nonnull align 8 dereferenceable(8) %6)
          to label %11 unwind label %14

11:                                               ; preds = %2
  %12 = invoke noundef zeroext i1 @_ZNK4lean8optionalINS_13constant_infoEEcvbEv(ptr noundef nonnull align 8 dereferenceable(16) %5)
          to label %13 unwind label %18

13:                                               ; preds = %11
  call void @_ZN4lean8optionalINS_13constant_infoEED2Ev(ptr noundef nonnull align 8 dereferenceable(16) %5) #19
  call void @_ZN4lean10object_refD2Ev(ptr noundef nonnull align 8 dereferenceable(8) %6) #19
  call void @llvm.lifetime.end.p0(i64 8, ptr %6) #19
  call void @llvm.lifetime.end.p0(i64 16, ptr %5) #19
  ret i1 %12

14:                                               ; preds = %2
  %15 = landingpad { ptr, i32 }
          cleanup
  %16 = extractvalue { ptr, i32 } %15, 0
  store ptr %16, ptr %7, align 8
  %17 = extractvalue { ptr, i32 } %15, 1
  store i32 %17, ptr %8, align 4
  br label %22

18:                                               ; preds = %11
  %19 = landingpad { ptr, i32 }
          cleanup
  %20 = extractvalue { ptr, i32 } %19, 0
  store ptr %20, ptr %7, align 8
  %21 = extractvalue { ptr, i32 } %19, 1
  store i32 %21, ptr %8, align 4
  call void @_ZN4lean8optionalINS_13constant_infoEED2Ev(ptr noundef nonnull align 8 dereferenceable(16) %5) #19
  br label %22

22:                                               ; preds = %18, %14
  call void @_ZN4lean10object_refD2Ev(ptr noundef nonnull align 8 dereferenceable(8) %6) #19
  call void @llvm.lifetime.end.p0(i64 8, ptr %6) #19
  call void @llvm.lifetime.end.p0(i64 16, ptr %5) #19
  br label %23

23:                                               ; preds = %22
  %24 = load ptr, ptr %7, align 8
  %25 = load i32, ptr %8, align 4
  %26 = insertvalue { ptr, i32 } poison, ptr %24, 0
  %27 = insertvalue { ptr, i32 } %26, i32 %25, 1
  resume { ptr, i32 } %27
}