; Function Attrs: mustprogress uwtable
define hidden noundef zeroext i1 @_ZN4lean14is_stage2_declERKNS_16elab_environmentERKNS_4nameE(ptr noundef nonnull align 8 dereferenceable(8) %0, ptr noundef nonnull align 8 dereferenceable(8) %1) local_unnamed_addr #0 personality ptr @__gxx_personality_v0 {
  %3 = alloca %"class.lean::environment", align 8
  %4 = alloca %"class.lean::optional.78", align 8
  %5 = alloca %"class.lean::name", align 8
  call void @llvm.lifetime.start.p0(i64 16, ptr nonnull %4) #25
  call void @llvm.lifetime.start.p0(i64 8, ptr nonnull %5) #25
  call void @_ZN4lean4nameC1ERKS0_PKc(ptr noundef nonnull align 8 dereferenceable(8) %5, ptr noundef nonnull align 8 dereferenceable(8) %1, ptr noundef nonnull @.str.13)
  call void @llvm.lifetime.start.p0(i64 8, ptr nonnull %3) #25, !noalias !149
  invoke void @_ZNK4lean16elab_environment13to_kernel_envEv(ptr dead_on_unwind nonnull writable sret(%"class.lean::environment") align 8 %3, ptr noundef nonnull align 8 dereferenceable(8) %0)
          to label %.noexc unwind label %53

.noexc:                                           ; preds = %2
  invoke void @_ZNK4lean11environment4findERKNS_4nameE(ptr dead_on_unwind nonnull writable sret(%"class.lean::optional.78") align 8 %4, ptr noundef nonnull align 8 dereferenceable(8) %3, ptr noundef nonnull align 8 dereferenceable(8) %5)
          to label %6 unwind label %20

6:                                                ; preds = %.noexc
  %7 = load ptr, ptr %3, align 8, !tbaa !3, !noalias !149
  %8 = ptrtoint ptr %7 to i64
  %9 = and i64 %8, 1
  %.not.i.i.i = icmp eq i64 %9, 0
  br i1 %.not.i.i.i, label %10, label %22

10:                                               ; preds = %6
  %11 = load i32, ptr %7, align 4, !tbaa !13
  %12 = icmp sgt i32 %11, 1
  br i1 %12, label %13, label %15, !prof !15

13:                                               ; preds = %10
  %14 = add nsw i32 %11, -1
  store i32 %14, ptr %7, align 4, !tbaa !13
  br label %22

15:                                               ; preds = %10
  %.not.i.i.i.i = icmp eq i32 %11, 0
  br i1 %.not.i.i.i.i, label %22, label %16

16:                                               ; preds = %15
  invoke void @lean_dec_ref_cold(ptr noundef nonnull %7)
          to label %22 unwind label %17

17:                                               ; preds = %16
  %18 = landingpad { ptr, i32 }
          catch ptr null
  %19 = extractvalue { ptr, i32 } %18, 0
  call void @__clang_call_terminate(ptr %19) #26
  unreachable

20:                                               ; preds = %.noexc
  %21 = landingpad { ptr, i32 }
          cleanup
  call void @_ZN4lean10object_refD2Ev(ptr noundef nonnull align 8 dereferenceable(8) %3) #25
  call void @llvm.lifetime.end.p0(i64 8, ptr nonnull %3) #25, !noalias !149
  br label %.body

22:                                               ; preds = %16, %15, %13, %6
  call void @llvm.lifetime.end.p0(i64 8, ptr nonnull %3) #25, !noalias !149
  %23 = load i8, ptr %4, align 8, !tbaa !152, !range !79, !noundef !80
  %24 = trunc nuw i8 %23 to i1
  br i1 %24, label %25, label %_ZN4lean8optionalINS_13constant_infoEED2Ev.exit

25:                                               ; preds = %22
  %26 = getelementptr inbounds nuw i8, ptr %4, i64 8
  %27 = load ptr, ptr %26, align 8, !tbaa !3
  %28 = ptrtoint ptr %27 to i64
  %29 = and i64 %28, 1
  %.not.i.i.i3 = icmp eq i64 %29, 0
  br i1 %.not.i.i.i3, label %30, label %_ZN4lean8optionalINS_13constant_infoEED2Ev.exit

30:                                               ; preds = %25
  %31 = load i32, ptr %27, align 4, !tbaa !13
  %32 = icmp sgt i32 %31, 1
  br i1 %32, label %33, label %35, !prof !15

33:                                               ; preds = %30
  %34 = add nsw i32 %31, -1
  store i32 %34, ptr %27, align 4, !tbaa !13
  br label %_ZN4lean8optionalINS_13constant_infoEED2Ev.exit

35:                                               ; preds = %30
  %.not.i.i.i.i4 = icmp eq i32 %31, 0
  br i1 %.not.i.i.i.i4, label %_ZN4lean8optionalINS_13constant_infoEED2Ev.exit, label %36

36:                                               ; preds = %35
  invoke void @lean_dec_ref_cold(ptr noundef nonnull %27)
          to label %_ZN4lean8optionalINS_13constant_infoEED2Ev.exit unwind label %37

37:                                               ; preds = %36
  %38 = landingpad { ptr, i32 }
          catch ptr null
  %39 = extractvalue { ptr, i32 } %38, 0
  call void @__clang_call_terminate(ptr %39) #26
  unreachable

_ZN4lean8optionalINS_13constant_infoEED2Ev.exit:  ; preds = %22, %25, %33, %35, %36
  %40 = load ptr, ptr %5, align 8, !tbaa !3
  %41 = ptrtoint ptr %40 to i64
  %42 = and i64 %41, 1
  %.not.i.i = icmp eq i64 %42, 0
  br i1 %.not.i.i, label %43, label %_ZN4lean10object_refD2Ev.exit

43:                                               ; preds = %_ZN4lean8optionalINS_13constant_infoEED2Ev.exit
  %44 = load i32, ptr %40, align 4, !tbaa !13
  %45 = icmp sgt i32 %44, 1
  br i1 %45, label %46, label %48, !prof !15

46:                                               ; preds = %43
  %47 = add nsw i32 %44, -1
  store i32 %47, ptr %40, align 4, !tbaa !13
  br label %_ZN4lean10object_refD2Ev.exit

48:                                               ; preds = %43
  %.not.i.i.i5 = icmp eq i32 %44, 0
  br i1 %.not.i.i.i5, label %_ZN4lean10object_refD2Ev.exit, label %49

49:                                               ; preds = %48
  invoke void @lean_dec_ref_cold(ptr noundef nonnull %40)
          to label %_ZN4lean10object_refD2Ev.exit unwind label %50

50:                                               ; preds = %49
  %51 = landingpad { ptr, i32 }
          catch ptr null
  %52 = extractvalue { ptr, i32 } %51, 0
  call void @__clang_call_terminate(ptr %52) #26
  unreachable

_ZN4lean10object_refD2Ev.exit:                    ; preds = %_ZN4lean8optionalINS_13constant_infoEED2Ev.exit, %46, %48, %49
  call void @llvm.lifetime.end.p0(i64 8, ptr nonnull %5) #25
  call void @llvm.lifetime.end.p0(i64 16, ptr nonnull %4) #25
  ret i1 %24

53:                                               ; preds = %2
  %54 = landingpad { ptr, i32 }
          cleanup
  br label %.body

.body:                                            ; preds = %20, %53
  %eh.lpad-body = phi { ptr, i32 } [ %54, %53 ], [ %21, %20 ]
  call void @_ZN4lean10object_refD2Ev(ptr noundef nonnull align 8 dereferenceable(8) %5) #25
  call void @llvm.lifetime.end.p0(i64 8, ptr nonnull %5) #25
  call void @llvm.lifetime.end.p0(i64 16, ptr nonnull %4) #25
  resume { ptr, i32 } %eh.lpad-body
}